; ModuleID = '43/953.c'
source_filename = "43/953.c"
target datalayout = "e-m:e-p270:32:32-p271:32:32-p272:64:64-i64:64-f80:128-n8:16:32:64-S128"
target triple = "x86_64-pc-linux-gnu"

@.str = private unnamed_addr constant [3 x i8] c"%d\00", align 1
@.str.1 = private unnamed_addr constant [7 x i8] c"%d %d\0A\00", align 1

; Function Attrs: noinline nounwind uwtable
define dso_local i32 @sushu(i32 %0) #0 {
  %2 = alloca i32, align 4
  %3 = alloca i32, align 4
  %4 = alloca i32, align 4
  store i32 %0, i32* %2, align 4
  store i32 1, i32* %4, align 4
  store i32 2, i32* %3, align 4
  br label %5

5:                                                ; preds = %16, %1
  %6 = load i32, i32* %3, align 4
  %7 = load i32, i32* %2, align 4
  %8 = sub nsw i32 %7, 1
  %9 = icmp sle i32 %6, %8
  br i1 %9, label %10, label %19

10:                                               ; preds = %5
  %11 = load i32, i32* %2, align 4
  %12 = load i32, i32* %3, align 4
  %13 = srem i32 %11, %12
  %14 = icmp eq i32 %13, 0
  br i1 %14, label %15, label %16

15:                                               ; preds = %10
  store i32 0, i32* %4, align 4
  br label %19

16:                                               ; preds = %10
  %17 = load i32, i32* %3, align 4
  %18 = add nsw i32 %17, 1
  store i32 %18, i32* %3, align 4
  br label %5

19:                                               ; preds = %15, %5
  %20 = load i32, i32* %4, align 4
  ret i32 %20
}

; Function Attrs: noinline nounwind uwtable
define dso_local i32 @main() #0 {
  %1 = alloca i32, align 4
  %2 = alloca i32, align 4
  %3 = alloca i32, align 4
  store i32 0, i32* %1, align 4
  %4 = call i32 (i8*, ...) @__isoc99_scanf(i8* getelementptr inbounds ([3 x i8], [3 x i8]* @.str, i64 0, i64 0), i32* %2)
  store i32 3, i32* %3, align 4
  br label %5

5:                                                ; preds = %26, %0
  %6 = load i32, i32* %3, align 4
  %7 = load i32, i32* %2, align 4
  %8 = sdiv i32 %7, 2
  %9 = icmp sle i32 %6, %8
  br i1 %9, label %10, label %29

10:                                               ; preds = %5
  %11 = load i32, i32* %3, align 4
  %12 = call i32 @sushu(i32 %11)
  %13 = icmp ne i32 %12, 0
  br i1 %13, label %14, label %26

14:                                               ; preds = %10
  %15 = load i32, i32* %2, align 4
  %16 = load i32, i32* %3, align 4
  %17 = sub nsw i32 %15, %16
  %18 = call i32 @sushu(i32 %17)
  %19 = icmp ne i32 %18, 0
  br i1 %19, label %20, label %26

20:                                               ; preds = %14
  %21 = load i32, i32* %3, align 4
  %22 = load i32, i32* %2, align 4
  %23 = load i32, i32* %3, align 4
  %24 = sub nsw i32 %22, %23
  %25 = call i32 (i8*, ...) @printf(i8* getelementptr inbounds ([7 x i8], [7 x i8]* @.str.1, i64 0, i64 0), i32 %21, i32 %24)
  br label %26

26:                                               ; preds = %20, %14, %10
  %27 = load i32, i32* %3, align 4
  %28 = add nsw i32 %27, 1
  store i32 %28, i32* %3, align 4
  br label %5

29:                                               ; preds = %5
  ret i32 0
}

declare dso_local i32 @__isoc99_scanf(i8*, ...) #1

declare dso_local i32 @printf(i8*, ...) #1


!llvm.module.flags = !{!0}
!llvm.ident = !{!1}

!0 = !{i32 1, !"wchar_size", i32 4}
!1 = !{!"clang version 10.0.0-4ubuntu1 "}
